target datalayout = "e-m:e-p270:32:32-p271:32:32-p272:64:64-i64:64-i128:128-f80:128-n8:16:32:64-S128"
target triple = "x86_64-unknown-linux-gnu"

%"struct.llvh::fltSemantics" = type { i16, i16, i32, i32 }
%"class.llvh::detail::IEEEFloat" = type <{ ptr, %"union.llvh::detail::IEEEFloat::Significand", i16, i8, [5 x i8] }>
%"union.llvh::detail::IEEEFloat::Significand" = type { i64 }

; Function Attrs: mustprogress nounwind uwtable
define internal noundef i32 @_ZN4llvhL29lostFractionThroughTruncationEPKmjj(ptr noundef %parts, i32 noundef %partCount, i32 noundef %bits) #1 {
entry:
  %retval = alloca i32, align 4
  %parts.addr = alloca ptr, align 8
  %partCount.addr = alloca i32, align 4
  %bits.addr = alloca i32, align 4
  %lsb = alloca i32, align 4
  store ptr %parts, ptr %parts.addr, align 8
  store i32 %partCount, ptr %partCount.addr, align 4
  store i32 %bits, ptr %bits.addr, align 4
  %0 = load ptr, ptr %parts.addr, align 8
  %1 = load i32, ptr %partCount.addr, align 4
  %call = call noundef i32 @_ZN4llvh5APInt5tcLSBEPKmj(ptr noundef %0, i32 noundef %1)
  store i32 %call, ptr %lsb, align 4
  %2 = load i32, ptr %bits.addr, align 4
  %3 = load i32, ptr %lsb, align 4
  %cmp = icmp ule i32 %2, %3
  br i1 %cmp, label %if.then, label %if.end

if.then:                                          ; preds = %entry
  store i32 0, ptr %retval, align 4
  br label %return

if.end:                                           ; preds = %entry
  %4 = load i32, ptr %bits.addr, align 4
  %5 = load i32, ptr %lsb, align 4
  %add = add i32 %5, 1
  %cmp1 = icmp eq i32 %4, %add
  br i1 %cmp1, label %if.then2, label %if.end3

if.then2:                                         ; preds = %if.end
  store i32 2, ptr %retval, align 4
  br label %return

if.end3:                                          ; preds = %if.end
  %6 = load i32, ptr %bits.addr, align 4
  %7 = load i32, ptr %partCount.addr, align 4
  %mul = mul i32 %7, 64
  %cmp4 = icmp ule i32 %6, %mul
  br i1 %cmp4, label %land.lhs.true, label %if.end7

land.lhs.true:                                    ; preds = %if.end3
  %8 = load ptr, ptr %parts.addr, align 8
  %9 = load i32, ptr %bits.addr, align 4
  %sub = sub i32 %9, 1
  %call5 = call noundef i32 @_ZN4llvh5APInt12tcExtractBitEPKmj(ptr noundef %8, i32 noundef %sub)
  %tobool = icmp ne i32 %call5, 0
  br i1 %tobool, label %if.then6, label %if.end7

if.then6:                                         ; preds = %land.lhs.true
  store i32 3, ptr %retval, align 4
  br label %return

if.end7:                                          ; preds = %land.lhs.true, %if.end3
  store i32 1, ptr %retval, align 4
  br label %return

return:                                           ; preds = %if.end7, %if.then6, %if.then2, %if.then
  %10 = load i32, ptr %retval, align 4
  ret i32 %10
}

; Function Attrs: mustprogress nounwind uwtable
define internal noundef i32 @_ZN4llvhL16partCountForBitsEj(i32 noundef %bits) #1 {
entry:
  %bits.addr = alloca i32, align 4
  store i32 %bits, ptr %bits.addr, align 4
  %0 = load i32, ptr %bits.addr, align 4
  %add = add i32 %0, 64
  %sub = sub i32 %add, 1
  %div = udiv i32 %sub, 64
  ret i32 %div
}

; Function Attrs: mustprogress nounwind uwtable
define internal noundef i32 @_ZN4llvhL10shiftRightEPmjj(ptr noundef %dst, i32 noundef %parts, i32 noundef %bits) #1 {
entry:
  %dst.addr = alloca ptr, align 8
  %parts.addr = alloca i32, align 4
  %bits.addr = alloca i32, align 4
  %lost_fraction = alloca i32, align 4
  store ptr %dst, ptr %dst.addr, align 8
  store i32 %parts, ptr %parts.addr, align 4
  store i32 %bits, ptr %bits.addr, align 4
  %0 = load ptr, ptr %dst.addr, align 8
  %1 = load i32, ptr %parts.addr, align 4
  %2 = load i32, ptr %bits.addr, align 4
  %call = call noundef i32 @_ZN4llvhL29lostFractionThroughTruncationEPKmjj(ptr noundef %0, i32 noundef %1, i32 noundef %2)
  store i32 %call, ptr %lost_fraction, align 4
  %3 = load ptr, ptr %dst.addr, align 8
  %4 = load i32, ptr %parts.addr, align 4
  %5 = load i32, ptr %bits.addr, align 4
  call void @_ZN4llvh5APInt12tcShiftRightEPmjj(ptr noundef %3, i32 noundef %4, i32 noundef %5)
  %6 = load i32, ptr %lost_fraction, align 4
  ret i32 %6
}

; Function Attrs: mustprogress nounwind uwtable
define hidden noundef i32 @_ZNK4llvh6detail9IEEEFloat9partCountEv(ptr noundef nonnull align 8 dereferenceable(24) %this) #1 align 2 {
entry:
  %this.addr = alloca ptr, align 8
  store ptr %this, ptr %this.addr, align 8
  %this1 = load ptr, ptr %this.addr, align 8
  %semantics = getelementptr inbounds %"class.llvh::detail::IEEEFloat", ptr %this1, i32 0, i32 0
  %0 = load ptr, ptr %semantics, align 8
  %precision = getelementptr inbounds %"struct.llvh::fltSemantics", ptr %0, i32 0, i32 2
  %1 = load i32, ptr %precision, align 4
  %add = add i32 %1, 1
  %call = call noundef i32 @_ZN4llvhL16partCountForBitsEj(i32 noundef %add)
  ret i32 %call
}

; Function Attrs: mustprogress nounwind uwtable
define hidden noundef ptr @_ZN4llvh6detail9IEEEFloat16significandPartsEv(ptr noundef nonnull align 8 dereferenceable(24) %this) #1 align 2 {
entry:
  %retval = alloca ptr, align 8
  %this.addr = alloca ptr, align 8
  store ptr %this, ptr %this.addr, align 8
  %this1 = load ptr, ptr %this.addr, align 8
  %call = call noundef i32 @_ZNK4llvh6detail9IEEEFloat9partCountEv(ptr noundef nonnull align 8 dereferenceable(24) %this1)
  %cmp = icmp ugt i32 %call, 1
  br i1 %cmp, label %if.then, label %if.else

if.then:                                          ; preds = %entry
  %significand = getelementptr inbounds %"class.llvh::detail::IEEEFloat", ptr %this1, i32 0, i32 1
  %0 = load ptr, ptr %significand, align 8
  store ptr %0, ptr %retval, align 8
  br label %return

if.else:                                          ; preds = %entry
  %significand2 = getelementptr inbounds %"class.llvh::detail::IEEEFloat", ptr %this1, i32 0, i32 1
  store ptr %significand2, ptr %retval, align 8
  br label %return

return:                                           ; preds = %if.else, %if.then
  %1 = load ptr, ptr %retval, align 8
  ret ptr %1
}

; Function Attrs: mustprogress nounwind uwtable
define hidden noundef i32 @_ZN4llvh6detail9IEEEFloat21shiftSignificandRightEj(ptr noundef nonnull align 8 dereferenceable(24) %this, i32 noundef %bits) #1 align 2 {
entry:
  %this.addr = alloca ptr, align 8
  %bits.addr = alloca i32, align 4
  store ptr %this, ptr %this.addr, align 8
  store i32 %bits, ptr %bits.addr, align 4
  %this1 = load ptr, ptr %this.addr, align 8
  %0 = load i32, ptr %bits.addr, align 4
  %exponent = getelementptr inbounds %"class.llvh::detail::IEEEFloat", ptr %this1, i32 0, i32 2
  %1 = load i16, ptr %exponent, align 8
  %conv = sext i16 %1 to i32
  %add = add i32 %conv, %0
  %conv2 = trunc i32 %add to i16
  store i16 %conv2, ptr %exponent, align 8
  %call = call noundef ptr @_ZN4llvh6detail9IEEEFloat16significandPartsEv(ptr noundef nonnull align 8 dereferenceable(24) %this1)
  %call3 = call noundef i32 @_ZNK4llvh6detail9IEEEFloat9partCountEv(ptr noundef nonnull align 8 dereferenceable(24) %this1)
  %2 = load i32, ptr %bits.addr, align 4
  %call4 = call noundef i32 @_ZN4llvhL10shiftRightEPmjj(ptr noundef %call, i32 noundef %call3, i32 noundef %2)
  ret i32 %call4
}