; Function Attrs: mustprogress nounwind uwtable
define hidden noundef range(i32 0, 4) i32 @_ZN4llvh6detail9IEEEFloat21shiftSignificandRightEj(ptr noundef nonnull align 8 dereferenceable(24) %this, i32 noundef %bits) local_unnamed_addr #2 align 2 {
entry:
  %exponent = getelementptr inbounds nuw i8, ptr %this, i64 16
  %0 = load i16, ptr %exponent, align 8
  %1 = trunc i32 %bits to i16
  %conv2 = add i16 %0, %1
  store i16 %conv2, ptr %exponent, align 8
  %2 = load ptr, ptr %this, align 8
  %precision.i.i = getelementptr inbounds nuw i8, ptr %2, i64 4
  %3 = load i32, ptr %precision.i.i, align 4
  %4 = add i32 %3, -64
  %cmp.i = icmp ult i32 %4, -128
  %significand.i = getelementptr inbounds nuw i8, ptr %this, i64 8
  %5 = load ptr, ptr %significand.i, align 8
  %retval.0.i = select i1 %cmp.i, ptr %5, ptr %significand.i
  %sub.i.i = add i32 %3, 64
  %div1.i.i = lshr i32 %sub.i.i, 6
  %call.i.i = tail call noundef i32 @_ZN4llvh5APInt5tcLSBEPKmj(ptr noundef %retval.0.i, i32 noundef range(i32 0, 67108864) %div1.i.i) #26
  %cmp.not.i.i = icmp ugt i32 %bits, %call.i.i
  br i1 %cmp.not.i.i, label %if.end.i.i, label %_ZN4llvhL10shiftRightEPmjj.exit

if.end.i.i:                                       ; preds = %entry
  %add.i.i = add nuw i32 %call.i.i, 1
  %cmp1.i.i = icmp eq i32 %bits, %add.i.i
  br i1 %cmp1.i.i, label %_ZN4llvhL10shiftRightEPmjj.exit, label %if.end3.i.i

if.end3.i.i:                                      ; preds = %if.end.i.i
  %mul.i.i = and i32 %sub.i.i, -64
  %cmp4.not.i.i = icmp ugt i32 %bits, %mul.i.i
  br i1 %cmp4.not.i.i, label %if.end7.i.i, label %land.lhs.true.i.i

land.lhs.true.i.i:                                ; preds = %if.end3.i.i
  %sub.i.i2 = add i32 %bits, -1
  %call5.i.i = tail call noundef i32 @_ZN4llvh5APInt12tcExtractBitEPKmj(ptr noundef %retval.0.i, i32 noundef %sub.i.i2) #26
  %tobool.not.i.i = icmp eq i32 %call5.i.i, 0
  br i1 %tobool.not.i.i, label %if.end7.i.i, label %_ZN4llvhL10shiftRightEPmjj.exit

if.end7.i.i:                                      ; preds = %land.lhs.true.i.i, %if.end3.i.i
  br label %_ZN4llvhL10shiftRightEPmjj.exit

_ZN4llvhL10shiftRightEPmjj.exit:                  ; preds = %entry, %if.end.i.i, %land.lhs.true.i.i, %if.end7.i.i
  %retval.0.i.i = phi i32 [ 1, %if.end7.i.i ], [ 0, %entry ], [ 2, %if.end.i.i ], [ 3, %land.lhs.true.i.i ]
  tail call void @_ZN4llvh5APInt12tcShiftRightEPmjj(ptr noundef %retval.0.i, i32 noundef range(i32 0, 67108864) %div1.i.i, i32 noundef %bits) #26
  ret i32 %retval.0.i.i
}